; Function Attrs: inlinehint mustprogress nounwind uwtable
define internal void @_ZN9grpc_core12_GLOBAL__N_16GrpcLb22TokenAndClientStatsArgD0Ev(ptr noundef nonnull align 8 dereferenceable(56) %0) unnamed_addr #16 align 2 personality ptr @__gxx_personality_v0 {
  %2 = getelementptr inbounds nuw i8, ptr %0, i64 48
  %3 = load ptr, ptr %2, align 8, !tbaa !252
  %.not.i.i = icmp eq ptr %3, null
  br i1 %.not.i.i, label %_ZN9grpc_core12_GLOBAL__N_16GrpcLb22TokenAndClientStatsArgD2Ev.exit, label %4

4:                                                ; preds = %1
  %5 = getelementptr inbounds nuw i8, ptr %3, i64 8
  %6 = atomicrmw sub ptr %5, i64 1 acq_rel, align 8
  %7 = icmp eq i64 %6, 1
  br i1 %7, label %8, label %_ZN9grpc_core12_GLOBAL__N_16GrpcLb22TokenAndClientStatsArgD2Ev.exit, !prof !74

8:                                                ; preds = %4
  tail call void @_ZNK9grpc_core11UnrefDeleteclIKNS_17GrpcLbClientStatsEEEvPT_(ptr noundef nonnull align 8 dereferenceable(16) %3, ptr noundef nonnull align 8 dereferenceable(16) %3)
  br label %_ZN9grpc_core12_GLOBAL__N_16GrpcLb22TokenAndClientStatsArgD2Ev.exit

_ZN9grpc_core12_GLOBAL__N_16GrpcLb22TokenAndClientStatsArgD2Ev.exit: ; preds = %1, %4, %8
  %9 = getelementptr inbounds nuw i8, ptr %0, i64 16
  tail call void @_ZN17grpc_event_engine12experimental5SliceD1Ev(ptr noundef nonnull align 8 dereferenceable(32) %9) #42
  tail call void @_ZdlPvm(ptr noundef nonnull %0, i64 noundef 56) #44
  ret void
}